target datalayout = "e-m:e-p270:32:32-p271:32:32-p272:64:64-i64:64-i128:128-f80:128-n8:16:32:64-S128"
target triple = "x86_64-pc-linux-gnu"

; Function Attrs: mustprogress uwtable
define noundef double @_ZN12colvarparams9get_paramERKNSt7__cxx1112basic_stringIcSt11char_traitsIcESaIcEEE(ptr noundef nonnull align 8 dereferenceable(104) %0, ptr noundef nonnull align 8 dereferenceable(32) %1) unnamed_addr #0 align 2 {
  %3 = alloca ptr, align 8
  %4 = alloca ptr, align 8
  %5 = alloca ptr, align 8
  store ptr %0, ptr %3, align 8, !tbaa !4
  store ptr %1, ptr %4, align 8, !tbaa !12
  %6 = load ptr, ptr %3, align 8
  call void @llvm.lifetime.start.p0(i64 8, ptr %5) #5
  %7 = load ptr, ptr %4, align 8, !tbaa !12
  %8 = load ptr, ptr %6, align 8, !tbaa !17
  %9 = getelementptr inbounds ptr, ptr %8, i64 2
  %10 = load ptr, ptr %9, align 8
  %11 = call noundef ptr %10(ptr noundef nonnull align 8 dereferenceable(104) %6, ptr noundef nonnull align 8 dereferenceable(32) %7)
  store ptr %11, ptr %5, align 8, !tbaa !19
  %12 = load ptr, ptr %5, align 8, !tbaa !19
  %13 = icmp ne ptr %12, null
  br i1 %13, label %14, label %17

14:                                               ; preds = %2
  %15 = load ptr, ptr %5, align 8, !tbaa !19
  %16 = load double, ptr %15, align 8, !tbaa !21
  br label %18

17:                                               ; preds = %2
  br label %18

18:                                               ; preds = %17, %14
  %19 = phi double [ %16, %14 ], [ 0.000000e+00, %17 ]
  call void @llvm.lifetime.end.p0(i64 8, ptr %5) #5
  ret double %19
}